; Function Attrs: mustprogress uwtable
define internal void @_ZN7rocksdb12_GLOBAL__N_115HashLinkListRep16FullListIterator4PrevEv(ptr nocapture noundef nonnull align 8 dereferenceable(72) %this) unnamed_addr #3 align 2 {
entry:
  %iter_ = getelementptr inbounds i8, ptr %this, i64 8
  %0 = load ptr, ptr %iter_, align 8
  %node_.i = getelementptr inbounds i8, ptr %this, i64 16
  %1 = load ptr, ptr %node_.i, align 8
  %head_.i.i = getelementptr inbounds i8, ptr %0, i64 24
  %2 = load ptr, ptr %head_.i.i, align 8
  %max_height_.i.i.i = getelementptr inbounds i8, ptr %0, i64 32
  %3 = load atomic i32, ptr %max_height_.i.i.i monotonic, align 4
  %compare_.i.i.i = getelementptr inbounds i8, ptr %0, i64 8
  br label %while.body.us.i.i.outer

while.body.us.i.i.outer:                          ; preds = %if.else.us.i.i, %entry
  %level.0.us.i.i.ph.in = phi i32 [ %3, %entry ], [ %level.0.us.i.i.ph, %if.else.us.i.i ]
  %last_not_after.0.us.i.i.ph = phi ptr [ null, %entry ], [ %atomic-temp.i.0.i.i.us.i.i, %if.else.us.i.i ]
  %x.0.us.i.i.ph = phi ptr [ %2, %entry ], [ %x.0.us.i.i, %if.else.us.i.i ]
  %level.0.us.i.i.ph = add nsw i32 %level.0.us.i.i.ph.in, -1
  %idxprom.i.us.i.i = sext i32 %level.0.us.i.i.ph to i64
  br label %while.body.us.i.i

while.body.us.i.i:                                ; preds = %while.body.us.i.i.outer, %_ZNK7rocksdb8SkipListIPKcRKNS_11MemTableRep13KeyComparatorEE14KeyIsAfterNodeERKS2_PNS7_4NodeE.exit.us.i.i
  %x.0.us.i.i = phi ptr [ %atomic-temp.i.0.i.i.us.i.i, %_ZNK7rocksdb8SkipListIPKcRKNS_11MemTableRep13KeyComparatorEE14KeyIsAfterNodeERKS2_PNS7_4NodeE.exit.us.i.i ], [ %x.0.us.i.i.ph, %while.body.us.i.i.outer ]
  %next_.i.us.i.i = getelementptr inbounds i8, ptr %x.0.us.i.i, i64 8
  %arrayidx.i.us.i.i = getelementptr inbounds [1 x %"struct.std::atomic.35"], ptr %next_.i.us.i.i, i64 0, i64 %idxprom.i.us.i.i
  %4 = load atomic i64, ptr %arrayidx.i.us.i.i acquire, align 8
  %atomic-temp.i.0.i.i.us.i.i = inttoptr i64 %4 to ptr
  %cmp.not.us.i.i = icmp eq ptr %last_not_after.0.us.i.i.ph, %atomic-temp.i.0.i.i.us.i.i
  %cmp.not.i.us.i.i = icmp eq i64 %4, 0
  %or.cond.us.i.i = or i1 %cmp.not.i.us.i.i, %cmp.not.us.i.i
  br i1 %or.cond.us.i.i, label %if.else.us.i.i, label %_ZNK7rocksdb8SkipListIPKcRKNS_11MemTableRep13KeyComparatorEE14KeyIsAfterNodeERKS2_PNS7_4NodeE.exit.us.i.i

_ZNK7rocksdb8SkipListIPKcRKNS_11MemTableRep13KeyComparatorEE14KeyIsAfterNodeERKS2_PNS7_4NodeE.exit.us.i.i: ; preds = %while.body.us.i.i
  %5 = load ptr, ptr %compare_.i.i.i, align 8
  %6 = load ptr, ptr %atomic-temp.i.0.i.i.us.i.i, align 8
  %7 = load ptr, ptr %1, align 8
  %vtable.i.us.i.i = load ptr, ptr %5, align 8
  %vfn.i.us.i.i = getelementptr inbounds i8, ptr %vtable.i.us.i.i, i64 8
  %8 = load ptr, ptr %vfn.i.us.i.i, align 8
  %call.i.us.i.i = tail call noundef i32 %8(ptr noundef nonnull align 8 dereferenceable(8) %5, ptr noundef %6, ptr noundef %7)
  %cmp3.i.us.i.i = icmp slt i32 %call.i.us.i.i, 0
  br i1 %cmp3.i.us.i.i, label %while.body.us.i.i, label %if.else.us.i.i, !llvm.loop !16

if.else.us.i.i:                                   ; preds = %_ZNK7rocksdb8SkipListIPKcRKNS_11MemTableRep13KeyComparatorEE14KeyIsAfterNodeERKS2_PNS7_4NodeE.exit.us.i.i, %while.body.us.i.i
  %cmp6.us.i.i = icmp eq i32 %level.0.us.i.i.ph, 0
  br i1 %cmp6.us.i.i, label %_ZN7rocksdb8SkipListIPKcRKNS_11MemTableRep13KeyComparatorEE8Iterator4PrevEv.exit, label %while.body.us.i.i.outer, !llvm.loop !16

_ZN7rocksdb8SkipListIPKcRKNS_11MemTableRep13KeyComparatorEE8Iterator4PrevEv.exit: ; preds = %if.else.us.i.i
  store ptr %x.0.us.i.i, ptr %node_.i, align 8
  %9 = load ptr, ptr %iter_, align 8
  %head_.i = getelementptr inbounds i8, ptr %9, i64 24
  %10 = load ptr, ptr %head_.i, align 8
  %cmp.i = icmp eq ptr %x.0.us.i.i, %10
  %spec.store.select.i = select i1 %cmp.i, ptr null, ptr %x.0.us.i.i
  store ptr %spec.store.select.i, ptr %node_.i, align 8
  ret void
}